target datalayout = "e-m:e-p270:32:32-p271:32:32-p272:64:64-i64:64-i128:128-f80:128-n8:16:32:64-S128"
target triple = "x86_64-pc-linux-gnu"

%struct.RECT = type { i64, i64, i64, i64 }

; Function Attrs: nounwind uwtable
define i32 @GetRectangle(i32 noundef %0, ptr noundef %1) #0 {
  %3 = alloca i32, align 4
  %4 = alloca i32, align 4
  %5 = alloca ptr, align 8
  store i32 %0, ptr %4, align 4, !tbaa !3
  store ptr %1, ptr %5, align 8, !tbaa !7
  %6 = load i32, ptr %4, align 4, !tbaa !3
  %7 = icmp eq i32 %6, 0
  br i1 %7, label %8, label %9

8:                                                ; preds = %2
  store i32 0, ptr %3, align 4
  br label %29

9:                                                ; preds = %2
  %10 = load i32, ptr %4, align 4, !tbaa !3
  %11 = sext i32 %10 to i64
  %12 = load ptr, ptr %5, align 8, !tbaa !7
  %13 = getelementptr inbounds nuw %struct.RECT, ptr %12, i32 0, i32 0
  store i64 %11, ptr %13, align 8, !tbaa !78
  %14 = load i32, ptr %4, align 4, !tbaa !3
  %15 = add i32 %14, 1
  %16 = sext i32 %15 to i64
  %17 = load ptr, ptr %5, align 8, !tbaa !7
  %18 = getelementptr inbounds nuw %struct.RECT, ptr %17, i32 0, i32 1
  store i64 %16, ptr %18, align 8, !tbaa !82
  %19 = load i32, ptr %4, align 4, !tbaa !3
  %20 = add i32 %19, 2
  %21 = sext i32 %20 to i64
  %22 = load ptr, ptr %5, align 8, !tbaa !7
  %23 = getelementptr inbounds nuw %struct.RECT, ptr %22, i32 0, i32 2
  store i64 %21, ptr %23, align 8, !tbaa !80
  %24 = load i32, ptr %4, align 4, !tbaa !3
  %25 = add i32 %24, 3
  %26 = sext i32 %25 to i64
  %27 = load ptr, ptr %5, align 8, !tbaa !7
  %28 = getelementptr inbounds nuw %struct.RECT, ptr %27, i32 0, i32 3
  store i64 %26, ptr %28, align 8, !tbaa !83
  store i32 1, ptr %3, align 4
  br label %29

29:                                               ; preds = %9, %8
  %30 = load i32, ptr %3, align 4
  ret i32 %30
}