; Function Attrs: mustprogress nofree norecurse nosync nounwind willreturn memory(argmem: write) uwtable
define range(i32 0, 2) i32 @GetRectangle(i32 noundef %0, ptr noundef writeonly captures(none) %1) local_unnamed_addr #23 {
  %3 = icmp eq i32 %0, 0
  br i1 %3, label %15, label %4

4:                                                ; preds = %2
  %5 = sext i32 %0 to i64
  store i64 %5, ptr %1, align 8, !tbaa !62
  %6 = add i32 %0, 1
  %7 = sext i32 %6 to i64
  %8 = getelementptr inbounds nuw i8, ptr %1, i64 8
  store i64 %7, ptr %8, align 8, !tbaa !65
  %9 = add i32 %0, 2
  %10 = sext i32 %9 to i64
  %11 = getelementptr inbounds nuw i8, ptr %1, i64 16
  store i64 %10, ptr %11, align 8, !tbaa !64
  %12 = add i32 %0, 3
  %13 = sext i32 %12 to i64
  %14 = getelementptr inbounds nuw i8, ptr %1, i64 24
  store i64 %13, ptr %14, align 8, !tbaa !66
  br label %15

15:                                               ; preds = %2, %4
  %.0 = phi i32 [ 1, %4 ], [ 0, %2 ]
  ret i32 %.0
}